; Function Attrs: nounwind uwtable
define noundef nonnull ptr @l_Lean_Expr_eqOrIff_x3f(ptr noundef %0) local_unnamed_addr #0 {
  %2 = load ptr, ptr @l_Lean_Expr_eq_x3f___closed__2, align 8, !tbaa !4
  %3 = tail call zeroext i8 @l_Lean_Expr_isAppOfArity(ptr noundef %0, ptr noundef %2, ptr noundef nonnull inttoptr (i64 7 to ptr)) #4
  %4 = icmp eq i8 %3, 0
  br i1 %4, label %5, label %31

5:                                                ; preds = %1
  %6 = load ptr, ptr @l_Lean_Expr_iff_x3f___closed__2, align 8, !tbaa !4
  %7 = tail call zeroext i8 @l_Lean_Expr_isAppOfArity(ptr noundef %0, ptr noundef %6, ptr noundef nonnull inttoptr (i64 5 to ptr)) #4
  %8 = icmp eq i8 %7, 0
  br i1 %8, label %55, label %9

9:                                                ; preds = %5
  %10 = tail call ptr @l_Lean_Expr_appFn_x21(ptr noundef %0) #4
  %11 = tail call ptr @l_Lean_Expr_appArg_x21(ptr noundef %10) #4
  %12 = ptrtoint ptr %10 to i64
  %13 = and i64 %12, 1
  %.not37 = icmp eq i64 %13, 0
  br i1 %.not37, label %14, label %lean_dec.exit31

14:                                               ; preds = %9
  %15 = load i32, ptr %10, align 4, !tbaa !8
  %16 = icmp sgt i32 %15, 1
  br i1 %16, label %17, label %19, !prof !11

17:                                               ; preds = %14
  %18 = add nsw i32 %15, -1
  store i32 %18, ptr %10, align 4, !tbaa !8
  br label %lean_dec.exit31

19:                                               ; preds = %14
  %.not.i = icmp eq i32 %15, 0
  br i1 %.not.i, label %lean_dec.exit31, label %20

20:                                               ; preds = %19
  tail call void @lean_dec_ref_cold(ptr noundef nonnull %10) #4
  br label %lean_dec.exit31

lean_dec.exit31:                                  ; preds = %20, %19, %17, %9
  %21 = tail call ptr @l_Lean_Expr_appArg_x21(ptr noundef %0) #4
  tail call void @lean_inc_heartbeat() #4
  %22 = tail call noalias ptr @mi_malloc_small(i64 noundef 24) #4
  %23 = icmp eq ptr %22, null
  br i1 %23, label %24, label %lean_alloc_ctor.exit

24:                                               ; preds = %lean_dec.exit31
  tail call void @lean_internal_panic_out_of_memory() #5
  unreachable

lean_alloc_ctor.exit:                             ; preds = %lean_dec.exit31
  %25 = getelementptr inbounds nuw i8, ptr %22, i64 4
  store i32 1, ptr %22, align 4, !tbaa !8
  store i32 131096, ptr %25, align 4
  %26 = getelementptr inbounds nuw i8, ptr %22, i64 8
  store ptr %11, ptr %26, align 8, !tbaa !4
  %27 = getelementptr inbounds nuw i8, ptr %22, i64 16
  store ptr %21, ptr %27, align 8, !tbaa !4
  tail call void @lean_inc_heartbeat() #4
  %28 = tail call noalias ptr @mi_malloc_small(i64 noundef 16) #4
  %29 = icmp eq ptr %28, null
  br i1 %29, label %30, label %.sink.split

30:                                               ; preds = %lean_alloc_ctor.exit
  tail call void @lean_internal_panic_out_of_memory() #5
  unreachable

31:                                               ; preds = %1
  %32 = tail call ptr @l_Lean_Expr_appFn_x21(ptr noundef %0) #4
  %33 = tail call ptr @l_Lean_Expr_appArg_x21(ptr noundef %32) #4
  %34 = ptrtoint ptr %32 to i64
  %35 = and i64 %34, 1
  %.not = icmp eq i64 %35, 0
  br i1 %.not, label %36, label %lean_dec.exit

36:                                               ; preds = %31
  %37 = load i32, ptr %32, align 4, !tbaa !8
  %38 = icmp sgt i32 %37, 1
  br i1 %38, label %39, label %41, !prof !11

39:                                               ; preds = %36
  %40 = add nsw i32 %37, -1
  store i32 %40, ptr %32, align 4, !tbaa !8
  br label %lean_dec.exit

41:                                               ; preds = %36
  %.not.i32 = icmp eq i32 %37, 0
  br i1 %.not.i32, label %lean_dec.exit, label %42

42:                                               ; preds = %41
  tail call void @lean_dec_ref_cold(ptr noundef nonnull %32) #4
  br label %lean_dec.exit

lean_dec.exit:                                    ; preds = %42, %41, %39, %31
  %43 = tail call ptr @l_Lean_Expr_appArg_x21(ptr noundef %0) #4
  tail call void @lean_inc_heartbeat() #4
  %44 = tail call noalias ptr @mi_malloc_small(i64 noundef 24) #4
  %45 = icmp eq ptr %44, null
  br i1 %45, label %46, label %lean_alloc_ctor.exit35

46:                                               ; preds = %lean_dec.exit
  tail call void @lean_internal_panic_out_of_memory() #5
  unreachable

lean_alloc_ctor.exit35:                           ; preds = %lean_dec.exit
  %47 = getelementptr inbounds nuw i8, ptr %44, i64 4
  store i32 1, ptr %44, align 4, !tbaa !8
  store i32 131096, ptr %47, align 4
  %48 = getelementptr inbounds nuw i8, ptr %44, i64 8
  store ptr %33, ptr %48, align 8, !tbaa !4
  %49 = getelementptr inbounds nuw i8, ptr %44, i64 16
  store ptr %43, ptr %49, align 8, !tbaa !4
  tail call void @lean_inc_heartbeat() #4
  %50 = tail call noalias ptr @mi_malloc_small(i64 noundef 16) #4
  %51 = icmp eq ptr %50, null
  br i1 %51, label %52, label %.sink.split

52:                                               ; preds = %lean_alloc_ctor.exit35
  tail call void @lean_internal_panic_out_of_memory() #5
  unreachable

.sink.split:                                      ; preds = %lean_alloc_ctor.exit35, %lean_alloc_ctor.exit
  %.sink42 = phi ptr [ %28, %lean_alloc_ctor.exit ], [ %50, %lean_alloc_ctor.exit35 ]
  %.sink = phi ptr [ %22, %lean_alloc_ctor.exit ], [ %44, %lean_alloc_ctor.exit35 ]
  %53 = getelementptr inbounds nuw i8, ptr %.sink42, i64 4
  store i32 1, ptr %.sink42, align 4, !tbaa !8
  store i32 16842768, ptr %53, align 4
  %54 = getelementptr inbounds nuw i8, ptr %.sink42, i64 8
  store ptr %.sink, ptr %54, align 8, !tbaa !4
  br label %55

55:                                               ; preds = %.sink.split, %5
  %.1 = phi ptr [ inttoptr (i64 1 to ptr), %5 ], [ %.sink42, %.sink.split ]
  ret ptr %.1
}